; Function Attrs: nounwind uwtable
define i32 @Card_AddCardinSolver(i32 noundef %0, ptr noundef writeonly captures(none) %1, ptr noundef writeonly captures(none) %2) local_unnamed_addr #0 {
  %4 = alloca i32, align 4
  %5 = shl nuw i32 1, %0
  %6 = tail call noalias dereferenceable_or_null(16) ptr @malloc(i64 noundef 16) #15
  %7 = getelementptr inbounds nuw i8, ptr %6, i64 4
  store i32 0, ptr %7, align 4
  store i32 1000, ptr %6, align 8
  %8 = tail call noalias dereferenceable_or_null(4000) ptr @malloc(i64 noundef 4000) #15
  %9 = getelementptr inbounds nuw i8, ptr %6, i64 8
  store ptr %8, ptr %9, align 8
  %10 = tail call noalias dereferenceable_or_null(16) ptr @malloc(i64 noundef 16) #15
  %11 = add i32 %5, -1
  %spec.store.select.i.i = tail call i32 @llvm.umax.i32(i32 %5, i32 16)
  %12 = getelementptr inbounds nuw i8, ptr %10, i64 4
  store i32 %spec.store.select.i.i, ptr %10, align 8
  %13 = sext i32 %spec.store.select.i.i to i64
  %14 = shl nsw i64 %13, 2
  %15 = tail call noalias ptr @malloc(i64 noundef %14) #15
  %16 = getelementptr inbounds nuw i8, ptr %10, i64 8
  store ptr %15, ptr %16, align 8
  store i32 %5, ptr %12, align 4
  %.not = icmp eq i32 %0, 31
  br i1 %.not, label %Vec_IntStartNatural.exit, label %.lr.ph.i

.lr.ph.i:                                         ; preds = %3
  %wide.trip.count.i = zext nneg i32 %5 to i64
  br label %17

17:                                               ; preds = %17, %.lr.ph.i
  %indvars.iv.i = phi i64 [ 0, %.lr.ph.i ], [ %indvars.iv.next.i, %17 ]
  %18 = getelementptr inbounds nuw i32, ptr %15, i64 %indvars.iv.i
  %19 = trunc nuw nsw i64 %indvars.iv.i to i32
  store i32 %19, ptr %18, align 4
  %indvars.iv.next.i = add nuw nsw i64 %indvars.iv.i, 1
  %exitcond.not.i = icmp eq i64 %indvars.iv.next.i, %wide.trip.count.i
  br i1 %exitcond.not.i, label %Vec_IntStartNatural.exit, label %17, !llvm.loop !16

Vec_IntStartNatural.exit:                         ; preds = %17, %3
  call void @llvm.lifetime.start.p0(i64 4, ptr nonnull %4)
  store i32 %5, ptr %4, align 4
  call fastcc void @Card_AddCardinConstrRange(ptr noundef nonnull %6, ptr noundef %15, i32 noundef 0, i32 noundef %11, ptr noundef %4)
  %20 = load i32, ptr %4, align 4
  call void @llvm.lifetime.end.p0(i64 4, ptr nonnull %4)
  %21 = load i32, ptr %7, align 4
  %22 = load i32, ptr %6, align 8
  %23 = icmp eq i32 %21, %22
  br i1 %23, label %24, label %.Vec_IntGrow.exit10_crit_edge.i

.Vec_IntGrow.exit10_crit_edge.i:                  ; preds = %Vec_IntStartNatural.exit
  %.pre.i = load ptr, ptr %9, align 8
  br label %Vec_IntPush.exit

24:                                               ; preds = %Vec_IntStartNatural.exit
  %25 = icmp slt i32 %21, 16
  br i1 %25, label %26, label %33

26:                                               ; preds = %24
  %27 = load ptr, ptr %9, align 8
  %.not9.i.i = icmp eq ptr %27, null
  br i1 %.not9.i.i, label %30, label %28

28:                                               ; preds = %26
  %29 = call dereferenceable_or_null(64) ptr @realloc(ptr noundef nonnull %27, i64 noundef 64) #14
  br label %Vec_IntGrow.exit.i

30:                                               ; preds = %26
  %31 = call noalias dereferenceable_or_null(64) ptr @malloc(i64 noundef 64) #15
  br label %Vec_IntGrow.exit.i

Vec_IntGrow.exit.i:                               ; preds = %30, %28
  %32 = phi ptr [ %29, %28 ], [ %31, %30 ]
  store ptr %32, ptr %9, align 8
  store i32 16, ptr %6, align 8
  br label %Vec_IntPush.exit

33:                                               ; preds = %24
  %34 = shl nuw nsw i32 %21, 1
  %35 = load ptr, ptr %9, align 8
  %.not9.i9.i = icmp eq ptr %35, null
  %36 = zext nneg i32 %34 to i64
  %37 = shl nuw nsw i64 %36, 2
  br i1 %.not9.i9.i, label %40, label %38

38:                                               ; preds = %33
  %39 = call ptr @realloc(ptr noundef nonnull %35, i64 noundef %37) #14
  br label %42

40:                                               ; preds = %33
  %41 = call noalias ptr @malloc(i64 noundef %37) #15
  br label %42

42:                                               ; preds = %40, %38
  %43 = phi ptr [ %39, %38 ], [ %41, %40 ]
  store ptr %43, ptr %9, align 8
  store i32 %34, ptr %6, align 8
  br label %Vec_IntPush.exit

Vec_IntPush.exit:                                 ; preds = %.Vec_IntGrow.exit10_crit_edge.i, %Vec_IntGrow.exit.i, %42
  %44 = phi ptr [ %.pre.i, %.Vec_IntGrow.exit10_crit_edge.i ], [ %43, %42 ], [ %32, %Vec_IntGrow.exit.i ]
  %45 = load i32, ptr %7, align 4
  %46 = add nsw i32 %45, 1
  store i32 %46, ptr %7, align 4
  %47 = sext i32 %45 to i64
  %48 = getelementptr inbounds i32, ptr %44, i64 %47
  store i32 -1, ptr %48, align 4
  store ptr %10, ptr %1, align 8
  store ptr %6, ptr %2, align 8
  ret i32 %20
}